target datalayout = "e-m:e-p270:32:32-p271:32:32-p272:64:64-i64:64-i128:128-f80:128-n8:16:32:64-S128"
target triple = "x86_64-pc-linux-gnu"

%"class.icu_77::StringTrieBuilder" = type { %"class.icu_77::UObject", ptr }
%"class.icu_77::UObject" = type { ptr }

; Function Attrs: inlinehint mustprogress nounwind uwtable
define internal noundef signext i8 @_ZL9U_SUCCESS10UErrorCode(i32 noundef %0) #1 {
  %2 = alloca i32, align 4
  store i32 %0, ptr %2, align 4, !tbaa !19
  %3 = load i32, ptr %2, align 4, !tbaa !19
  %4 = icmp sle i32 %3, 0
  %5 = zext i1 %4 to i8
  ret i8 %5
}

; Function Attrs: inlinehint mustprogress nounwind uwtable
define internal noundef signext i8 @_ZL9U_FAILURE10UErrorCode(i32 noundef %0) #1 {
  %2 = alloca i32, align 4
  store i32 %0, ptr %2, align 4, !tbaa !19
  %3 = load i32, ptr %2, align 4, !tbaa !19
  %4 = icmp sgt i32 %3, 0
  %5 = zext i1 %4 to i8
  ret i8 %5
}

; Function Attrs: mustprogress uwtable
define void @_ZN6icu_7717StringTrieBuilder20createCompactBuilderEiR10UErrorCode(ptr noundef nonnull align 8 dereferenceable(16) %0, i32 noundef %1, ptr noundef nonnull align 4 dereferenceable(4) %2) #2 align 2 {
  %4 = alloca ptr, align 8
  %5 = alloca i32, align 4
  %6 = alloca ptr, align 8
  store ptr %0, ptr %4, align 8, !tbaa !3
  store i32 %1, ptr %5, align 4, !tbaa !16
  store ptr %2, ptr %6, align 8, !tbaa !18
  %7 = load ptr, ptr %4, align 8
  %8 = load ptr, ptr %6, align 8, !tbaa !18
  %9 = load i32, ptr %8, align 4, !tbaa !19
  %10 = call noundef signext i8 @_ZL9U_FAILURE10UErrorCode(i32 noundef %9)
  %11 = icmp ne i8 %10, 0
  br i1 %11, label %12, label %13

12:                                               ; preds = %3
  br label %33

13:                                               ; preds = %3
  %14 = load i32, ptr %5, align 4, !tbaa !16
  %15 = load ptr, ptr %6, align 8, !tbaa !18
  %16 = call ptr @uhash_openSize_77(ptr noundef @_ZL18hashStringTrieNode8UElement, ptr noundef @_ZL20equalStringTrieNodes8UElementS_, ptr noundef null, i32 noundef %14, ptr noundef %15)
  %17 = getelementptr inbounds nuw %"class.icu_77::StringTrieBuilder", ptr %7, i32 0, i32 1
  store ptr %16, ptr %17, align 8, !tbaa !10
  %18 = load ptr, ptr %6, align 8, !tbaa !18
  %19 = load i32, ptr %18, align 4, !tbaa !19
  %20 = call noundef signext i8 @_ZL9U_SUCCESS10UErrorCode(i32 noundef %19)
  %21 = icmp ne i8 %20, 0
  br i1 %21, label %22, label %33

22:                                               ; preds = %13
  %23 = getelementptr inbounds nuw %"class.icu_77::StringTrieBuilder", ptr %7, i32 0, i32 1
  %24 = load ptr, ptr %23, align 8, !tbaa !10
  %25 = icmp eq ptr %24, null
  br i1 %25, label %26, label %28

26:                                               ; preds = %22
  %27 = load ptr, ptr %6, align 8, !tbaa !18
  store i32 7, ptr %27, align 4, !tbaa !19
  br label %32

28:                                               ; preds = %22
  %29 = getelementptr inbounds nuw %"class.icu_77::StringTrieBuilder", ptr %7, i32 0, i32 1
  %30 = load ptr, ptr %29, align 8, !tbaa !10
  %31 = call ptr @uhash_setKeyDeleter_77(ptr noundef %30, ptr noundef @uprv_deleteUObject_77)
  br label %32

32:                                               ; preds = %28, %26
  br label %33

33:                                               ; preds = %12, %32, %13
  ret void
}