; Function Attrs: mustprogress uwtable
define void @_ZN6icu_7717StringTrieBuilder20createCompactBuilderEiR10UErrorCode(ptr noundef nonnull writeonly align 8 captures(none) dereferenceable(16) %0, i32 noundef %1, ptr noundef nonnull align 4 dereferenceable(4) %2) local_unnamed_addr #2 align 2 {
  %4 = load i32, ptr %2, align 4, !tbaa !12
  %5 = icmp slt i32 %4, 1
  br i1 %5, label %6, label %16

6:                                                ; preds = %3
  %7 = tail call ptr @uhash_openSize_77(ptr noundef nonnull @_ZL18hashStringTrieNode8UElement, ptr noundef nonnull @_ZL20equalStringTrieNodes8UElementS_, ptr noundef null, i32 noundef %1, ptr noundef nonnull %2)
  %8 = getelementptr inbounds nuw i8, ptr %0, i64 8
  store ptr %7, ptr %8, align 8, !tbaa !6
  %9 = load i32, ptr %2, align 4, !tbaa !12
  %10 = icmp sgt i32 %9, 0
  br i1 %10, label %16, label %11

11:                                               ; preds = %6
  %12 = icmp eq ptr %7, null
  br i1 %12, label %13, label %14

13:                                               ; preds = %11
  store i32 7, ptr %2, align 4, !tbaa !12
  br label %16

14:                                               ; preds = %11
  %15 = tail call ptr @uhash_setKeyDeleter_77(ptr noundef nonnull %7, ptr noundef nonnull @uprv_deleteUObject_77)
  br label %16

16:                                               ; preds = %13, %14, %3, %6
  ret void
}